; Function Attrs: nounwind uwtable
define noalias nonnull ptr @l_Std_Time_PlainTime_ofHourMinuteSeconds(ptr noundef %0, ptr noundef %1, ptr noundef %2) local_unnamed_addr #0 {
  %4 = load ptr, ptr @l___private_Std_Time_Time_PlainTime_0__Std_Time_reprPlainTime____x40_Std_Time_Time_PlainTime___hyg_403____closed__8, align 8, !tbaa !4
  tail call void @lean_inc_heartbeat() #4
  %5 = tail call noalias ptr @mi_malloc_small(i64 noundef 40) #4
  %6 = icmp eq ptr %5, null
  br i1 %6, label %7, label %lean_alloc_ctor.exit

7:                                                ; preds = %3
  tail call void @lean_internal_panic_out_of_memory() #5
  unreachable

lean_alloc_ctor.exit:                             ; preds = %3
  %8 = getelementptr inbounds nuw i8, ptr %5, i64 4
  store i32 1, ptr %5, align 4, !tbaa !9
  store i32 262184, ptr %8, align 4
  %9 = getelementptr inbounds nuw i8, ptr %5, i64 8
  store ptr %0, ptr %9, align 8, !tbaa !4
  %10 = getelementptr inbounds nuw i8, ptr %5, i64 16
  store ptr %1, ptr %10, align 8, !tbaa !4
  %11 = getelementptr inbounds nuw i8, ptr %5, i64 24
  store ptr %2, ptr %11, align 8, !tbaa !4
  %12 = getelementptr inbounds nuw i8, ptr %5, i64 32
  store ptr %4, ptr %12, align 8, !tbaa !4
  ret ptr %5
}